; Function Attrs: mustprogress uwtable
define hidden void @_ZN3nla6basics36basic_sign_lemma_model_based_one_monERKNS_5monicEi(ptr noundef nonnull align 8 dereferenceable(184) %this, ptr noundef nonnull align 8 dereferenceable(34) %m, i32 noundef %product_sign) local_unnamed_addr #3 align 2 personality ptr @__gxx_personality_v0 {
entry:
  %lemma = alloca %"class.nla::new_lemma", align 8
  %ref.tmp = alloca %"class.nla::ineq", align 8
  %cmp = icmp eq i32 %product_sign, 0
  br i1 %cmp, label %if.then, label %if.else

if.then:                                          ; preds = %entry
  tail call void @_ZN3nla6basics20generate_zero_lemmasERKNS_5monicE(ptr noundef nonnull align 8 dereferenceable(184) %this, ptr noundef nonnull align 8 dereferenceable(34) %m)
  br label %if.end

if.else:                                          ; preds = %entry
  %0 = load ptr, ptr %this, align 8
  call void @_ZN3nla9new_lemmaC1ERNS_4coreEPKc(ptr noundef nonnull align 8 dereferenceable(16) %lemma, ptr noundef nonnull align 8 dereferenceable(4720) %0, ptr noundef nonnull @__FUNCTION__._ZN3nla6basics36basic_sign_lemma_model_based_one_monERKNS_5monicEi)
  %m_vs.i = getelementptr inbounds i8, ptr %m, i64 8
  %1 = load ptr, ptr %m_vs.i, align 8
  %cmp.i.i = icmp eq ptr %1, null
  br i1 %cmp.i.i, label %for.end, label %_ZNK6vectorIjLb0EjE3endEv.exit

_ZNK6vectorIjLb0EjE3endEv.exit:                   ; preds = %if.else
  %arrayidx.i.i = getelementptr inbounds i8, ptr %1, i64 -4
  %2 = load i32, ptr %arrayidx.i.i, align 4
  %3 = zext i32 %2 to i64
  %add.ptr.i = getelementptr inbounds i32, ptr %1, i64 %3
  %cmp7.not10 = icmp eq i32 %2, 0
  br i1 %cmp7.not10, label %for.end, label %for.body

for.body:                                         ; preds = %_ZNK6vectorIjLb0EjE3endEv.exit, %for.inc
  %__begin2.011 = phi ptr [ %incdec.ptr, %for.inc ], [ %1, %_ZNK6vectorIjLb0EjE3endEv.exit ]
  %4 = load i32, ptr %__begin2.011, align 4
  invoke void @_ZN3nla6basics18negate_strict_signERNS_9new_lemmaEj(ptr noundef nonnull align 8 dereferenceable(184) %this, ptr noundef nonnull align 8 dereferenceable(16) %lemma, i32 noundef %4)
          to label %for.inc unwind label %lpad.loopexit

for.inc:                                          ; preds = %for.body
  %incdec.ptr = getelementptr inbounds i8, ptr %__begin2.011, i64 4
  %cmp7.not = icmp eq ptr %incdec.ptr, %add.ptr.i
  br i1 %cmp7.not, label %for.end, label %for.body

lpad.loopexit:                                    ; preds = %for.body
  %lpad.loopexit8 = landingpad { ptr, i32 }
          cleanup
  br label %ehcleanup

lpad.loopexit.split-lp:                           ; preds = %for.end
  %lpad.loopexit.split-lp9 = landingpad { ptr, i32 }
          cleanup
  br label %ehcleanup

for.end:                                          ; preds = %for.inc, %if.else, %_ZNK6vectorIjLb0EjE3endEv.exit
  %5 = load i32, ptr %m, align 8
  %cmp11 = icmp eq i32 %product_sign, 1
  %cond = select i1 %cmp11, i32 1, i32 -1
  invoke void @_ZN3nla4ineqC2EjN2lp16lconstraint_kindEi(ptr noundef nonnull align 8 dereferenceable(64) %ref.tmp, i32 noundef %5, i32 noundef %cond, i32 noundef 0)
          to label %invoke.cont12 unwind label %lpad.loopexit.split-lp

invoke.cont12:                                    ; preds = %for.end
  %call15 = invoke noundef nonnull align 8 dereferenceable(16) ptr @_ZN3nla9new_lemmaoRERKNS_4ineqE(ptr noundef nonnull align 8 dereferenceable(16) %lemma, ptr noundef nonnull align 8 dereferenceable(64) %ref.tmp)
          to label %invoke.cont14 unwind label %lpad13

invoke.cont14:                                    ; preds = %invoke.cont12
  call void @_ZN3nla4ineqD2Ev(ptr noundef nonnull align 8 dereferenceable(64) %ref.tmp) #17
  call void @_ZN3nla9new_lemmaD1Ev(ptr noundef nonnull align 8 dereferenceable(16) %lemma) #17
  br label %if.end

lpad13:                                           ; preds = %invoke.cont12
  %6 = landingpad { ptr, i32 }
          cleanup
  call void @_ZN3nla4ineqD2Ev(ptr noundef nonnull align 8 dereferenceable(64) %ref.tmp) #17
  br label %ehcleanup

ehcleanup:                                        ; preds = %lpad.loopexit, %lpad.loopexit.split-lp, %lpad13
  %.pn = phi { ptr, i32 } [ %6, %lpad13 ], [ %lpad.loopexit8, %lpad.loopexit ], [ %lpad.loopexit.split-lp9, %lpad.loopexit.split-lp ]
  call void @_ZN3nla9new_lemmaD1Ev(ptr noundef nonnull align 8 dereferenceable(16) %lemma) #17
  resume { ptr, i32 } %.pn

if.end:                                           ; preds = %invoke.cont14, %if.then
  ret void
}